target datalayout = "e-m:e-p270:32:32-p271:32:32-p272:64:64-i64:64-i128:128-f80:128-n8:16:32:64-S128"
target triple = "x86_64-unknown-linux-gnu"

%"class.QuantLib::Distribution" = type <{ i32, [4 x i8], double, double, %"class.std::vector", %"class.std::vector.0", %"class.std::vector.0", %"class.std::vector.0", %"class.std::vector.0", %"class.std::vector.0", %"class.std::vector.0", %"class.std::vector.0", i32, i32, i8, [7 x i8] }>
%"class.std::vector" = type { %"struct.std::_Vector_base" }
%"struct.std::_Vector_base" = type { %"struct.std::_Vector_base<int, std::allocator<int>>::_Vector_impl" }
%"struct.std::_Vector_base<int, std::allocator<int>>::_Vector_impl" = type { %"struct.std::_Vector_base<int, std::allocator<int>>::_Vector_impl_data" }
%"struct.std::_Vector_base<int, std::allocator<int>>::_Vector_impl_data" = type { ptr, ptr, ptr }
%"class.std::vector.0" = type { %"struct.std::_Vector_base.1" }
%"struct.std::_Vector_base.1" = type { %"struct.std::_Vector_base<double, std::allocator<double>>::_Vector_impl" }
%"struct.std::_Vector_base<double, std::allocator<double>>::_Vector_impl" = type { %"struct.std::_Vector_base<double, std::allocator<double>>::_Vector_impl_data" }
%"struct.std::_Vector_base<double, std::allocator<double>>::_Vector_impl_data" = type { ptr, ptr, ptr }

; Function Attrs: mustprogress nounwind uwtable
define linkonce_odr noundef nonnull align 8 dereferenceable(8) ptr @_ZNSt6vectorIdSaIdEEixEm(ptr noundef nonnull align 8 dereferenceable(24) %this, i64 noundef %__n) #2 comdat align 2 {
entry:
  %this.addr = alloca ptr, align 8
  %__n.addr = alloca i64, align 8
  store ptr %this, ptr %this.addr, align 8, !tbaa !3
  store i64 %__n, ptr %__n.addr, align 8, !tbaa !29
  %this1 = load ptr, ptr %this.addr, align 8
  %_M_impl = getelementptr inbounds nuw %"struct.std::_Vector_base.1", ptr %this1, i32 0, i32 0
  %_M_start = getelementptr inbounds nuw %"struct.std::_Vector_base<double, std::allocator<double>>::_Vector_impl_data", ptr %_M_impl, i32 0, i32 0
  %0 = load ptr, ptr %_M_start, align 8, !tbaa !31
  %1 = load i64, ptr %__n.addr, align 8, !tbaa !29
  %add.ptr = getelementptr inbounds nuw double, ptr %0, i64 %1
  ret ptr %add.ptr
}

; Function Attrs: mustprogress uwtable
define noundef double @_ZN8QuantLib12Distribution20trancheExpectedValueEdd(ptr noundef nonnull align 8 dereferenceable(225) %this, double noundef %a, double noundef %d) #0 align 2 {
entry:
  %this.addr = alloca ptr, align 8
  %a.addr = alloca double, align 8
  %d.addr = alloca double, align 8
  %expected = alloca double, align 8
  %i = alloca i32, align 4
  %cleanup.dest.slot = alloca i32, align 4
  %x = alloca double, align 8
  store ptr %this, ptr %this.addr, align 8, !tbaa !3
  store double %a, ptr %a.addr, align 8, !tbaa !9
  store double %d, ptr %d.addr, align 8, !tbaa !9
  %this1 = load ptr, ptr %this.addr, align 8
  call void @_ZN8QuantLib12Distribution9normalizeEv(ptr noundef nonnull align 8 dereferenceable(225) %this1)
  call void @llvm.lifetime.start.p0(i64 8, ptr %expected) #15
  store double 0.000000e+00, ptr %expected, align 8, !tbaa !9
  call void @llvm.lifetime.start.p0(i64 4, ptr %i) #15
  store i32 0, ptr %i, align 4, !tbaa !7
  br label %for.cond

for.cond:                                         ; preds = %for.inc, %entry
  %0 = load i32, ptr %i, align 4, !tbaa !7
  %size_ = getelementptr inbounds nuw %"class.QuantLib::Distribution", ptr %this1, i32 0, i32 0
  %1 = load i32, ptr %size_, align 8, !tbaa !11
  %cmp = icmp slt i32 %0, %1
  br i1 %cmp, label %for.body, label %for.cond.cleanup

for.cond.cleanup:                                 ; preds = %for.cond
  store i32 2, ptr %cleanup.dest.slot, align 4
  br label %cleanup14

for.body:                                         ; preds = %for.cond
  call void @llvm.lifetime.start.p0(i64 8, ptr %x) #15
  %x_ = getelementptr inbounds nuw %"class.QuantLib::Distribution", ptr %this1, i32 0, i32 5
  %2 = load i32, ptr %i, align 4, !tbaa !7
  %conv = sext i32 %2 to i64
  %call = call noundef nonnull align 8 dereferenceable(8) ptr @_ZNSt6vectorIdSaIdEEixEm(ptr noundef nonnull align 8 dereferenceable(24) %x_, i64 noundef %conv) #15
  %3 = load double, ptr %call, align 8, !tbaa !9
  %dx_ = getelementptr inbounds nuw %"class.QuantLib::Distribution", ptr %this1, i32 0, i32 6
  %4 = load i32, ptr %i, align 4, !tbaa !7
  %conv2 = sext i32 %4 to i64
  %call3 = call noundef nonnull align 8 dereferenceable(8) ptr @_ZNSt6vectorIdSaIdEEixEm(ptr noundef nonnull align 8 dereferenceable(24) %dx_, i64 noundef %conv2) #15
  %5 = load double, ptr %call3, align 8, !tbaa !9
  %div = fdiv double %5, 2.000000e+00
  %add = fadd double %3, %div
  store double %add, ptr %x, align 8, !tbaa !9
  %6 = load double, ptr %x, align 8, !tbaa !9
  %7 = load double, ptr %a.addr, align 8, !tbaa !9
  %cmp4 = fcmp olt double %6, %7
  br i1 %cmp4, label %if.then, label %if.end

if.then:                                          ; preds = %for.body
  store i32 4, ptr %cleanup.dest.slot, align 4
  br label %cleanup

if.end:                                           ; preds = %for.body
  %8 = load double, ptr %x, align 8, !tbaa !9
  %9 = load double, ptr %d.addr, align 8, !tbaa !9
  %cmp5 = fcmp ogt double %8, %9
  br i1 %cmp5, label %if.then6, label %if.end7

if.then6:                                         ; preds = %if.end
  store i32 2, ptr %cleanup.dest.slot, align 4
  br label %cleanup

if.end7:                                          ; preds = %if.end
  %10 = load double, ptr %x, align 8, !tbaa !9
  %11 = load double, ptr %a.addr, align 8, !tbaa !9
  %sub = fsub double %10, %11
  %dx_8 = getelementptr inbounds nuw %"class.QuantLib::Distribution", ptr %this1, i32 0, i32 6
  %12 = load i32, ptr %i, align 4, !tbaa !7
  %conv9 = sext i32 %12 to i64
  %call10 = call noundef nonnull align 8 dereferenceable(8) ptr @_ZNSt6vectorIdSaIdEEixEm(ptr noundef nonnull align 8 dereferenceable(24) %dx_8, i64 noundef %conv9) #15
  %13 = load double, ptr %call10, align 8, !tbaa !9
  %mul = fmul double %sub, %13
  %density_ = getelementptr inbounds nuw %"class.QuantLib::Distribution", ptr %this1, i32 0, i32 7
  %14 = load i32, ptr %i, align 4, !tbaa !7
  %conv11 = sext i32 %14 to i64
  %call12 = call noundef nonnull align 8 dereferenceable(8) ptr @_ZNSt6vectorIdSaIdEEixEm(ptr noundef nonnull align 8 dereferenceable(24) %density_, i64 noundef %conv11) #15
  %15 = load double, ptr %call12, align 8, !tbaa !9
  %16 = load double, ptr %expected, align 8, !tbaa !9
  %17 = call double @llvm.fmuladd.f64(double %mul, double %15, double %16)
  store double %17, ptr %expected, align 8, !tbaa !9
  store i32 0, ptr %cleanup.dest.slot, align 4
  br label %cleanup

cleanup:                                          ; preds = %if.end7, %if.then6, %if.then
  call void @llvm.lifetime.end.p0(i64 8, ptr %x) #15
  %cleanup.dest = load i32, ptr %cleanup.dest.slot, align 4
  switch i32 %cleanup.dest, label %cleanup14 [
    i32 0, label %cleanup.cont
    i32 4, label %for.inc
  ]

cleanup.cont:                                     ; preds = %cleanup
  br label %for.inc

for.inc:                                          ; preds = %cleanup.cont, %cleanup
  %18 = load i32, ptr %i, align 4, !tbaa !7
  %inc = add nsw i32 %18, 1
  store i32 %inc, ptr %i, align 4, !tbaa !7
  br label %for.cond, !llvm.loop !45

cleanup14:                                        ; preds = %cleanup, %for.cond.cleanup
  call void @llvm.lifetime.end.p0(i64 4, ptr %i) #15
  br label %for.end

for.end:                                          ; preds = %cleanup14
  %19 = load double, ptr %d.addr, align 8, !tbaa !9
  %20 = load double, ptr %a.addr, align 8, !tbaa !9
  %sub15 = fsub double %19, %20
  %21 = load double, ptr %d.addr, align 8, !tbaa !9
  %call16 = call noundef double @_ZN8QuantLib12Distribution17cumulativeDensityEd(ptr noundef nonnull align 8 dereferenceable(225) %this1, double noundef %21)
  %sub17 = fsub double 1.000000e+00, %call16
  %22 = load double, ptr %expected, align 8, !tbaa !9
  %23 = call double @llvm.fmuladd.f64(double %sub15, double %sub17, double %22)
  store double %23, ptr %expected, align 8, !tbaa !9
  %24 = load double, ptr %expected, align 8, !tbaa !9
  store i32 1, ptr %cleanup.dest.slot, align 4
  call void @llvm.lifetime.end.p0(i64 8, ptr %expected) #15
  ret double %24
}