; Function Attrs: mustprogress uwtable
define noundef double @_ZN8QuantLib12Distribution20trancheExpectedValueEdd(ptr nocapture noundef nonnull align 8 dereferenceable(225) %this, double noundef %a, double noundef %d) local_unnamed_addr #0 align 2 {
entry:
  tail call void @_ZN8QuantLib12Distribution9normalizeEv(ptr noundef nonnull align 8 dereferenceable(225) %this)
  %0 = load i32, ptr %this, align 8, !tbaa !3
  %cmp20 = icmp sgt i32 %0, 0
  br i1 %cmp20, label %for.body.lr.ph, label %cleanup14

for.body.lr.ph:                                   ; preds = %entry
  %x_ = getelementptr inbounds nuw i8, ptr %this, i64 48
  %1 = load ptr, ptr %x_, align 8, !tbaa !25
  %dx_ = getelementptr inbounds nuw i8, ptr %this, i64 72
  %2 = load ptr, ptr %dx_, align 8, !tbaa !25
  %density_ = getelementptr inbounds nuw i8, ptr %this, i64 96
  %3 = load ptr, ptr %density_, align 8
  %wide.trip.count = zext nneg i32 %0 to i64
  br label %for.body

for.body:                                         ; preds = %for.body.lr.ph, %for.inc
  %indvars.iv = phi i64 [ 0, %for.body.lr.ph ], [ %indvars.iv.next, %for.inc ]
  %expected.022 = phi double [ 0.000000e+00, %for.body.lr.ph ], [ %expected.2.ph, %for.inc ]
  %add.ptr.i = getelementptr inbounds nuw double, ptr %1, i64 %indvars.iv
  %4 = load double, ptr %add.ptr.i, align 8, !tbaa !27
  %add.ptr.i14 = getelementptr inbounds nuw double, ptr %2, i64 %indvars.iv
  %5 = load double, ptr %add.ptr.i14, align 8, !tbaa !27
  %div = fmul double %5, 5.000000e-01
  %add = fadd double %4, %div
  %cmp4 = fcmp olt double %add, %a
  br i1 %cmp4, label %for.inc, label %if.end

if.end:                                           ; preds = %for.body
  %cmp5 = fcmp ogt double %add, %d
  br i1 %cmp5, label %cleanup14, label %if.end7

if.end7:                                          ; preds = %if.end
  %sub = fsub double %add, %a
  %mul = fmul double %5, %sub
  %add.ptr.i16 = getelementptr inbounds nuw double, ptr %3, i64 %indvars.iv
  %6 = load double, ptr %add.ptr.i16, align 8, !tbaa !27
  %7 = tail call double @llvm.fmuladd.f64(double %mul, double %6, double %expected.022)
  br label %for.inc

for.inc:                                          ; preds = %if.end7, %for.body
  %expected.2.ph = phi double [ %expected.022, %for.body ], [ %7, %if.end7 ]
  %indvars.iv.next = add nuw nsw i64 %indvars.iv, 1
  %exitcond.not = icmp eq i64 %indvars.iv.next, %wide.trip.count
  br i1 %exitcond.not, label %cleanup14, label %for.body, !llvm.loop !55

cleanup14:                                        ; preds = %for.inc, %if.end, %entry
  %expected.0.lcssa = phi double [ 0.000000e+00, %entry ], [ %expected.022, %if.end ], [ %expected.2.ph, %for.inc ]
  %sub15 = fsub double %d, %a
  %call16 = tail call noundef double @_ZN8QuantLib12Distribution17cumulativeDensityEd(ptr noundef nonnull align 8 dereferenceable(225) %this, double noundef %d)
  %sub17 = fsub double 1.000000e+00, %call16
  %8 = tail call double @llvm.fmuladd.f64(double %sub15, double %sub17, double %expected.0.lcssa)
  ret double %8
}